target datalayout = "e-m:e-p270:32:32-p271:32:32-p272:64:64-i64:64-i128:128-f80:128-n8:16:32:64-S128"
target triple = "x86_64-pc-linux-gnu"

@l_Lake_JobAction_verb___closed__1 = internal global ptr null, align 8
@l_Lake_JobAction_verb___closed__2 = internal global ptr null, align 8
@l_Lake_JobAction_verb___closed__3 = internal global ptr null, align 8
@l_Lake_JobAction_verb___closed__4 = internal global ptr null, align 8
@l_Lake_JobAction_verb___closed__5 = internal global ptr null, align 8
@l_Lake_JobAction_verb___closed__6 = internal global ptr null, align 8
@l_Lake_JobAction_verb___closed__7 = internal global ptr null, align 8
@l_Lake_JobAction_verb___closed__8 = internal global ptr null, align 8

; Function Attrs: nounwind uwtable
define ptr @l_Lake_JobAction_verb(i8 noundef zeroext %0, i8 noundef zeroext %1) #2 {
  %3 = alloca ptr, align 8
  %4 = alloca i8, align 1
  %5 = alloca i8, align 1
  %6 = alloca ptr, align 8
  %7 = alloca ptr, align 8
  %8 = alloca ptr, align 8
  %9 = alloca ptr, align 8
  %10 = alloca ptr, align 8
  %11 = alloca ptr, align 8
  %12 = alloca ptr, align 8
  %13 = alloca ptr, align 8
  store i8 %0, ptr %4, align 1, !tbaa !10
  store i8 %1, ptr %5, align 1, !tbaa !10
  br label %14

14:                                               ; preds = %2
  %15 = load i8, ptr %5, align 1, !tbaa !10
  %16 = zext i8 %15 to i32
  switch i32 %16, label %47 [
    i32 0, label %17
    i32 1, label %27
    i32 2, label %37
  ]

17:                                               ; preds = %14
  %18 = load i8, ptr %4, align 1, !tbaa !10
  %19 = zext i8 %18 to i32
  %20 = icmp eq i32 %19, 0
  br i1 %20, label %21, label %24

21:                                               ; preds = %17
  call void @llvm.lifetime.start.p0(i64 8, ptr %6) #7
  %22 = load ptr, ptr @l_Lake_JobAction_verb___closed__1, align 8, !tbaa !4
  store ptr %22, ptr %6, align 8, !tbaa !4
  %23 = load ptr, ptr %6, align 8, !tbaa !4
  store ptr %23, ptr %3, align 8
  call void @llvm.lifetime.end.p0(i64 8, ptr %6) #7
  br label %57

24:                                               ; preds = %17
  call void @llvm.lifetime.start.p0(i64 8, ptr %7) #7
  %25 = load ptr, ptr @l_Lake_JobAction_verb___closed__2, align 8, !tbaa !4
  store ptr %25, ptr %7, align 8, !tbaa !4
  %26 = load ptr, ptr %7, align 8, !tbaa !4
  store ptr %26, ptr %3, align 8
  call void @llvm.lifetime.end.p0(i64 8, ptr %7) #7
  br label %57

27:                                               ; preds = %14
  %28 = load i8, ptr %4, align 1, !tbaa !10
  %29 = zext i8 %28 to i32
  %30 = icmp eq i32 %29, 0
  br i1 %30, label %31, label %34

31:                                               ; preds = %27
  call void @llvm.lifetime.start.p0(i64 8, ptr %8) #7
  %32 = load ptr, ptr @l_Lake_JobAction_verb___closed__3, align 8, !tbaa !4
  store ptr %32, ptr %8, align 8, !tbaa !4
  %33 = load ptr, ptr %8, align 8, !tbaa !4
  store ptr %33, ptr %3, align 8
  call void @llvm.lifetime.end.p0(i64 8, ptr %8) #7
  br label %57

34:                                               ; preds = %27
  call void @llvm.lifetime.start.p0(i64 8, ptr %9) #7
  %35 = load ptr, ptr @l_Lake_JobAction_verb___closed__4, align 8, !tbaa !4
  store ptr %35, ptr %9, align 8, !tbaa !4
  %36 = load ptr, ptr %9, align 8, !tbaa !4
  store ptr %36, ptr %3, align 8
  call void @llvm.lifetime.end.p0(i64 8, ptr %9) #7
  br label %57

37:                                               ; preds = %14
  %38 = load i8, ptr %4, align 1, !tbaa !10
  %39 = zext i8 %38 to i32
  %40 = icmp eq i32 %39, 0
  br i1 %40, label %41, label %44

41:                                               ; preds = %37
  call void @llvm.lifetime.start.p0(i64 8, ptr %10) #7
  %42 = load ptr, ptr @l_Lake_JobAction_verb___closed__5, align 8, !tbaa !4
  store ptr %42, ptr %10, align 8, !tbaa !4
  %43 = load ptr, ptr %10, align 8, !tbaa !4
  store ptr %43, ptr %3, align 8
  call void @llvm.lifetime.end.p0(i64 8, ptr %10) #7
  br label %57

44:                                               ; preds = %37
  call void @llvm.lifetime.start.p0(i64 8, ptr %11) #7
  %45 = load ptr, ptr @l_Lake_JobAction_verb___closed__6, align 8, !tbaa !4
  store ptr %45, ptr %11, align 8, !tbaa !4
  %46 = load ptr, ptr %11, align 8, !tbaa !4
  store ptr %46, ptr %3, align 8
  call void @llvm.lifetime.end.p0(i64 8, ptr %11) #7
  br label %57

47:                                               ; preds = %14
  %48 = load i8, ptr %4, align 1, !tbaa !10
  %49 = zext i8 %48 to i32
  %50 = icmp eq i32 %49, 0
  br i1 %50, label %51, label %54

51:                                               ; preds = %47
  call void @llvm.lifetime.start.p0(i64 8, ptr %12) #7
  %52 = load ptr, ptr @l_Lake_JobAction_verb___closed__7, align 8, !tbaa !4
  store ptr %52, ptr %12, align 8, !tbaa !4
  %53 = load ptr, ptr %12, align 8, !tbaa !4
  store ptr %53, ptr %3, align 8
  call void @llvm.lifetime.end.p0(i64 8, ptr %12) #7
  br label %57

54:                                               ; preds = %47
  call void @llvm.lifetime.start.p0(i64 8, ptr %13) #7
  %55 = load ptr, ptr @l_Lake_JobAction_verb___closed__8, align 8, !tbaa !4
  store ptr %55, ptr %13, align 8, !tbaa !4
  %56 = load ptr, ptr %13, align 8, !tbaa !4
  store ptr %56, ptr %3, align 8
  call void @llvm.lifetime.end.p0(i64 8, ptr %13) #7
  br label %57

57:                                               ; preds = %54, %51, %44, %41, %34, %31, %24, %21
  %58 = load ptr, ptr %3, align 8
  ret ptr %58
}