; Function Attrs: mustprogress nofree norecurse nosync nounwind willreturn memory(read, inaccessiblemem: none) uwtable
define ptr @l_Lake_JobAction_verb(i8 noundef zeroext %0, i8 noundef zeroext %1) local_unnamed_addr #4 {
  %3 = icmp eq i8 %0, 0
  switch i8 %1, label %7 [
    i8 0, label %4
    i8 1, label %5
    i8 2, label %6
  ]

4:                                                ; preds = %2
  %l_Lake_JobAction_verb___closed__1.l_Lake_JobAction_verb___closed__2 = select i1 %3, ptr @l_Lake_JobAction_verb___closed__1, ptr @l_Lake_JobAction_verb___closed__2
  br label %8

5:                                                ; preds = %2
  %l_Lake_JobAction_verb___closed__3.l_Lake_JobAction_verb___closed__4 = select i1 %3, ptr @l_Lake_JobAction_verb___closed__3, ptr @l_Lake_JobAction_verb___closed__4
  br label %8

6:                                                ; preds = %2
  %l_Lake_JobAction_verb___closed__5.l_Lake_JobAction_verb___closed__6 = select i1 %3, ptr @l_Lake_JobAction_verb___closed__5, ptr @l_Lake_JobAction_verb___closed__6
  br label %8

7:                                                ; preds = %2
  %l_Lake_JobAction_verb___closed__7.l_Lake_JobAction_verb___closed__8 = select i1 %3, ptr @l_Lake_JobAction_verb___closed__7, ptr @l_Lake_JobAction_verb___closed__8
  br label %8

8:                                                ; preds = %7, %6, %5, %4
  %.0.in = phi ptr [ %l_Lake_JobAction_verb___closed__1.l_Lake_JobAction_verb___closed__2, %4 ], [ %l_Lake_JobAction_verb___closed__3.l_Lake_JobAction_verb___closed__4, %5 ], [ %l_Lake_JobAction_verb___closed__5.l_Lake_JobAction_verb___closed__6, %6 ], [ %l_Lake_JobAction_verb___closed__7.l_Lake_JobAction_verb___closed__8, %7 ]
  %.0 = load ptr, ptr %.0.in, align 8, !tbaa !10
  ret ptr %.0
}